; Function Attrs: mustprogress uwtable
define internal fastcc void @_ZSt22__stable_sort_adaptiveISt16reverse_iteratorIN9__gnu_cxx17__normal_iteratorIPP26cmCTestBinPackerAllocationSt6vectorIS4_SaIS4_EEEEES5_lNS1_5__ops15_Iter_comp_iterIZN12_GLOBAL__N_122AllocateCTestResourcesINSD_28RoundRobinAllocationStrategyEEEbRKSt3mapINSt7__cxx1112basic_stringIcSt11char_traitsIcESaIcEEEN24cmCTestResourceAllocator8ResourceESt4lessISM_ESaISt4pairIKSM_SO_EEERS6_IS3_SaIS3_EEEUlS4_S4_E_EEEvT_S13_T0_T1_T2_(ptr noundef nonnull readonly captures(none) %0, ptr noundef nonnull readonly captures(none) %1, ptr noundef %2, i64 noundef %3) unnamed_addr #1 {
  %5 = alloca %"class.std::reverse_iterator", align 8
  %6 = alloca %"class.std::reverse_iterator", align 8
  %7 = alloca %"class.std::reverse_iterator", align 8
  %8 = alloca %"class.std::reverse_iterator", align 8
  %9 = alloca %"class.std::reverse_iterator", align 8
  %10 = alloca %"class.std::reverse_iterator", align 8
  %11 = alloca %"class.std::reverse_iterator", align 8
  %12 = alloca %"class.std::reverse_iterator", align 8
  %13 = alloca %"class.std::reverse_iterator", align 8
  %14 = alloca %"class.std::reverse_iterator", align 8
  %.sroa.0.0.copyload.i.i = load ptr, ptr %0, align 8
  %.sroa.0.0.copyload.i2.i = load ptr, ptr %1, align 8, !tbaa !23
  %15 = ptrtoint ptr %.sroa.0.0.copyload.i.i to i64
  %16 = ptrtoint ptr %.sroa.0.0.copyload.i2.i to i64
  %17 = sub i64 %15, %16
  %18 = ashr exact i64 %17, 3
  %19 = add nsw i64 %18, 1
  %20 = sdiv i64 %19, 2
  %21 = sub nsw i64 0, %20
  %22 = getelementptr inbounds ptr, ptr %.sroa.0.0.copyload.i.i, i64 %21
  %23 = icmp sgt i64 %20, %3
  %24 = ptrtoint ptr %22 to i64
  br i1 %23, label %25, label %27

25:                                               ; preds = %4
  store i64 %15, ptr %5, align 8, !tbaa !23
  store i64 %24, ptr %6, align 8, !tbaa !23
  call fastcc void @_ZSt22__stable_sort_adaptiveISt16reverse_iteratorIN9__gnu_cxx17__normal_iteratorIPP26cmCTestBinPackerAllocationSt6vectorIS4_SaIS4_EEEEES5_lNS1_5__ops15_Iter_comp_iterIZN12_GLOBAL__N_122AllocateCTestResourcesINSD_28RoundRobinAllocationStrategyEEEbRKSt3mapINSt7__cxx1112basic_stringIcSt11char_traitsIcESaIcEEEN24cmCTestResourceAllocator8ResourceESt4lessISM_ESaISt4pairIKSM_SO_EEERS6_IS3_SaIS3_EEEUlS4_S4_E_EEEvT_S13_T0_T1_T2_(ptr noundef %5, ptr noundef %6, ptr noundef %2, i64 noundef %3)
  store i64 %24, ptr %7, align 8, !tbaa !23
  %26 = load i64, ptr %1, align 8, !tbaa !23
  store i64 %26, ptr %8, align 8, !tbaa !23
  call fastcc void @_ZSt22__stable_sort_adaptiveISt16reverse_iteratorIN9__gnu_cxx17__normal_iteratorIPP26cmCTestBinPackerAllocationSt6vectorIS4_SaIS4_EEEEES5_lNS1_5__ops15_Iter_comp_iterIZN12_GLOBAL__N_122AllocateCTestResourcesINSD_28RoundRobinAllocationStrategyEEEbRKSt3mapINSt7__cxx1112basic_stringIcSt11char_traitsIcESaIcEEEN24cmCTestResourceAllocator8ResourceESt4lessISM_ESaISt4pairIKSM_SO_EEERS6_IS3_SaIS3_EEEUlS4_S4_E_EEEvT_S13_T0_T1_T2_(ptr noundef %7, ptr noundef %8, ptr noundef %2, i64 noundef %3)
  br label %29

27:                                               ; preds = %4
  store i64 %15, ptr %9, align 8, !tbaa !23
  store i64 %24, ptr %10, align 8, !tbaa !23
  call fastcc void @_ZSt24__merge_sort_with_bufferISt16reverse_iteratorIN9__gnu_cxx17__normal_iteratorIPP26cmCTestBinPackerAllocationSt6vectorIS4_SaIS4_EEEEES5_NS1_5__ops15_Iter_comp_iterIZN12_GLOBAL__N_122AllocateCTestResourcesINSD_28RoundRobinAllocationStrategyEEEbRKSt3mapINSt7__cxx1112basic_stringIcSt11char_traitsIcESaIcEEEN24cmCTestResourceAllocator8ResourceESt4lessISM_ESaISt4pairIKSM_SO_EEERS6_IS3_SaIS3_EEEUlS4_S4_E_EEEvT_S13_T0_T1_(ptr noundef %9, ptr noundef %10, ptr noundef %2)
  store i64 %24, ptr %11, align 8, !tbaa !23
  %28 = load i64, ptr %1, align 8, !tbaa !23
  store i64 %28, ptr %12, align 8, !tbaa !23
  call fastcc void @_ZSt24__merge_sort_with_bufferISt16reverse_iteratorIN9__gnu_cxx17__normal_iteratorIPP26cmCTestBinPackerAllocationSt6vectorIS4_SaIS4_EEEEES5_NS1_5__ops15_Iter_comp_iterIZN12_GLOBAL__N_122AllocateCTestResourcesINSD_28RoundRobinAllocationStrategyEEEbRKSt3mapINSt7__cxx1112basic_stringIcSt11char_traitsIcESaIcEEEN24cmCTestResourceAllocator8ResourceESt4lessISM_ESaISt4pairIKSM_SO_EEERS6_IS3_SaIS3_EEEUlS4_S4_E_EEEvT_S13_T0_T1_(ptr noundef %11, ptr noundef %12, ptr noundef %2)
  br label %29

29:                                               ; preds = %27, %25
  %30 = load i64, ptr %0, align 8, !tbaa !23
  store i64 %30, ptr %13, align 8, !tbaa !23
  %31 = load i64, ptr %1, align 8, !tbaa !23
  store i64 %31, ptr %14, align 8, !tbaa !23
  %32 = sub i64 %30, %24
  %33 = ashr exact i64 %32, 3
  %34 = sub i64 %24, %31
  %35 = ashr exact i64 %34, 3
  call fastcc void @_ZSt16__merge_adaptiveISt16reverse_iteratorIN9__gnu_cxx17__normal_iteratorIPP26cmCTestBinPackerAllocationSt6vectorIS4_SaIS4_EEEEElS5_NS1_5__ops15_Iter_comp_iterIZN12_GLOBAL__N_122AllocateCTestResourcesINSD_28RoundRobinAllocationStrategyEEEbRKSt3mapINSt7__cxx1112basic_stringIcSt11char_traitsIcESaIcEEEN24cmCTestResourceAllocator8ResourceESt4lessISM_ESaISt4pairIKSM_SO_EEERS6_IS3_SaIS3_EEEUlS4_S4_E_EEEvT_S13_S13_T0_S14_T1_S14_T2_(ptr noundef %13, i64 %24, ptr noundef %14, i64 noundef %33, i64 noundef %35, ptr noundef %2, i64 noundef %3)
  ret void
}